(lp0
I36
a(i__main__
Problem
p1
(dp2
S'ac'
p3
I15
sS'letter'
p4
VA1
p5
sS'title'
p6
VRandom Points on the Circle
p7
sba(i__main__
Problem
p8
(dp9
g3
I33
sg4
VB1
p10
sg6
VLines
p11
sba(i__main__
Problem
p12
(dp13
g3
I36
sg4
VC1
p14
sg6
VFraction Factory
p15
sba(i__main__
Problem
p16
(dp17
g3
I53
sg4
VD1
p18
sg6
VGreedy Game
p19
sba(i__main__
Problem
p20
(dp21
g3
I28
sg4
VE1
p22
sg6
VOdd Grammar
p23
sba(i__main__
Problem
p24
(dp25
g3
I53
sg4
VF1
p26
sg6
VColored Path
p27
sba(i__main__
Problem
p28
(dp29
g3
I14
sg4
VG1
p30
sg6
VPencil of Wishing
p31
sba(i__main__
Problem
p32
(dp33
g3
I14
sg4
VH1
p34
sg6
VPoints
p35
sba(i__main__
Problem
p36
(dp37
g3
I44
sg4
VI1
p38
sg6
VSet Intersection
p39
sba(i__main__
Problem
p40
(dp41
g3
I50
sg4
VJ1
p42
sg6
VSort It!
p43
sba(i__main__
Problem
p44
(dp45
g3
I29
sg4
VK1
p46
sg6
VTwo Strings
p47
sba(i__main__
Problem
p48
(dp49
g3
I16
sg4
VL1
p50
sg6
VTriangle
p51
sba(i__main__
Problem
p52
(dp53
g3
I56
sg4
VA2
p54
sg6
VMerges and Acquisitions
p55
sba(i__main__
Problem
p56
(dp57
g3
I57
sg4
VB2
p58
sg6
VChange a Password
p59
sba(i__main__
Problem
p60
(dp61
g3
I54
sg4
VC2
p62
sg6
VDelete Files
p63
sba(i__main__
Problem
p64
(dp65
g3
I56
sg4
VD2
p66
sg6
VLinear Gimmick
p67
sba(i__main__
Problem
p68
(dp69
g3
I51
sg4
VE2
p70
sg6
VShifting a Matrix
p71
sba(i__main__
Problem
p72
(dp73
g3
I51
sg4
VF2
p74
sg6
VModern Announce Network
p75
sba(i__main__
Problem
p76
(dp77
g3
I31
sg4
VG2
p78
sg6
VCube Dividing
p79
sba(i__main__
Problem
p80
(dp81
g3
I53
sg4
VH2
p82
sg6
VDonut Decoration
p83
sba(i__main__
Problem
p84
(dp85
g3
I5
sg4
VI2
p86
sg6
VShortest Bridge
p87
sba(i__main__
Problem
p88
(dp89
g3
I5
sg4
VJ2
p90
sg6
VLongest Shortest Path
p91
sba(i__main__
Problem
p92
(dp93
g3
I34
sg4
VK2
p94
sg6
VOptimal Tournament
p95
sba(i__main__
Problem
p96
(dp97
g3
I17
sg4
VA3
p98
sg6
V2016
p99
sba(i__main__
Problem
p100
(dp101
g3
I42
sg4
VB3
p102
sg6
VAirports
p103
sba(i__main__
Problem
p104
(dp105
g3
I48
sg4
VC3
p106
sg6
VJump
p107
sba(i__main__
Problem
p108
(dp109
g3
I23
sg4
VD3
p110
sg6
VMerge
p111
sba(i__main__
Problem
p112
(dp113
g3
I57
sg4
VE3
p114
sg6
VMirror Rice Cake
p115
sba(i__main__
Problem
p116
(dp117
g3
I32
sg4
VF3
p118
sg6
VNumber Cards
p119
sba(i__main__
Problem
p120
(dp121
g3
I3
sg4
VG3
p122
sg6
VPaint
p123
sba(i__main__
Problem
p124
(dp125
g3
I22
sg4
VH3
p126
sg6
VRandom Walk
p127
sba(i__main__
Problem
p128
(dp129
g3
I41
sg4
VI3
p130
sg6
VRobots
p131
sba(i__main__
Problem
p132
(dp133
g3
I48
sg4
VJ3
p134
sg6
VRopes
p135
sba(i__main__
Problem
p136
(dp137
g3
I9
sg4
VK3
p138
sg6
VStains
p139
sba(i__main__
Problem
p140
(dp141
g3
I56
sg4
VL3
p142
sg6
VString Modification
p143
sba(i__main__
Problem
p144
(dp145
g3
I15
sg4
VM3
p146
sg6
VTeam Competition
p147
sbaI61
a(i__main__
Team
p148
(dp149
S'solved'
p150
(lp151
I1
aI1
aI1
aI1
aI1
aI1
aI1
aI1
aI1
aI1
aI1
aI1
aI1
aI1
aI1
aI1
aI1
aI1
aI1
aI1
aI0
aI1
aI1
aI1
aI1
aI1
aI1
aI1
aI1
aI0
aI1
aI1
aI1
aI1
aI1
aI1
asS'name'
p152
VUral FU Dandelion: Danilyuk, Merkurev, Sivukhin
p153
sba(i__main__
Team
p154
(dp155
g150
(lp156
I1
aI1
aI1
aI1
aI1
aI1
aI0
aI1
aI1
aI1
aI1
aI1
aI1
aI1
aI1
aI1
aI1
aI1
aI1
aI1
aI1
aI1
aI1
aI0
aI1
aI1
aI1
aI1
aI1
aI0
aI1
aI1
aI1
aI1
aI1
aI1
asg152
VSPb SU Base: Ershov, Gordeev, Pyshkin
p157
sba(i__main__
Team
p158
(dp159
g150
(lp160
I1
aI1
aI1
aI1
aI1
aI1
aI1
aI1
aI1
aI1
aI1
aI1
aI1
aI1
aI1
aI1
aI1
aI1
aI1
aI1
aI0
aI0
aI1
aI1
aI1
aI1
aI1
aI1
aI1
aI0
aI1
aI1
aI1
aI0
aI1
aI1
asg152
VBelarusian SUIR 2: Sobal, Vistyazh, Volchek
p161
sba(i__main__
Team
p162
(dp163
g150
(lp164
I1
aI1
aI1
aI1
aI1
aI1
aI1
aI1
aI1
aI1
aI0
aI1
aI1
aI1
aI1
aI1
aI1
aI1
aI1
aI1
aI0
aI0
aI1
aI1
aI1
aI1
aI1
aI1
aI1
aI0
aI1
aI1
aI1
aI1
aI1
aI1
asg152
VUrFU + LNU + PermSU: Kuchumov, Mayorov, Pryshchenko
p165
sba(i__main__
Team
p166
(dp167
g150
(lp168
I0
aI1
aI1
aI1
aI1
aI1
aI1
aI1
aI1
aI1
aI1
aI1
aI1
aI1
aI1
aI1
aI1
aI1
aI1
aI1
aI1
aI0
aI1
aI1
aI1
aI1
aI1
aI1
aI1
aI1
aI1
aI1
aI1
aI0
aI1
aI0
asg152
VLNU Penguins: Bilyi, Herasymiv, Savitskyi
p169
sba(i__main__
Team
p170
(dp171
g150
(lp172
I0
aI1
aI1
aI1
aI1
aI1
aI0
aI0
aI1
aI1
aI1
aI1
aI1
aI1
aI1
aI1
aI1
aI1
aI1
aI1
aI0
aI0
aI1
aI1
aI1
aI1
aI1
aI1
aI1
aI1
aI1
aI1
aI1
aI1
aI1
aI1
asg152
VWarsaw U Eagles: Nadara, Smulewicz, Sokolowski
p173
sba(i__main__
Team
p174
(dp175
g150
(lp176
I1
aI1
aI1
aI1
aI1
aI1
aI1
aI1
aI1
aI1
aI1
aI1
aI1
aI1
aI1
aI1
aI1
aI1
aI1
aI1
aI0
aI0
aI1
aI1
aI1
aI1
aI1
aI1
aI1
aI0
aI1
aI1
aI1
aI0
aI1
aI0
asg152
VWroclaw U: Bartlomiej, Maciej, Mateusz
p177
sba(i__main__
Team
p178
(dp179
g150
(lp180
I1
aI1
aI1
aI1
aI1
aI1
aI1
aI0
aI1
aI1
aI1
aI1
aI1
aI1
aI1
aI1
aI1
aI1
aI1
aI1
aI1
aI0
aI1
aI0
aI1
aI1
aI1
aI1
aI1
aI0
aI1
aI1
aI1
aI0
aI1
aI1
asg152
VMoscow IPT: Golovanov, Ivashchenko, Ostanin
p181
sba(i__main__
Team
p182
(dp183
g150
(lp184
I1
aI1
aI1
aI1
aI1
aI1
aI1
aI0
aI1
aI1
aI1
aI0
aI1
aI1
aI1
aI1
aI1
aI1
aI1
aI1
aI0
aI0
aI1
aI1
aI1
aI1
aI1
aI1
aI1
aI0
aI1
aI1
aI1
aI1
aI1
aI0
asg152
VMoscow SU + AESC + Intellectual: Gorbunov, Ipatov, Makeev
p185
sba(i__main__
Team
p186
(dp187
g150
(lp188
I1
aI1
aI1
aI1
aI1
aI1
aI0
aI0
aI1
aI1
aI1
aI0
aI1
aI1
aI1
aI1
aI1
aI1
aI1
aI1
aI0
aI1
aI1
aI1
aI1
aI1
aI0
aI1
aI1
aI0
aI1
aI1
aI1
aI1
aI1
aI1
asg152
VSPb SU Pony Trippers: Logunov, Riazanov, Simonov
p189
sba(i__main__
Team
p190
(dp191
g150
(lp192
I1
aI1
aI1
aI1
aI0
aI1
aI1
aI1
aI1
aI1
aI1
aI0
aI1
aI1
aI1
aI1
aI1
aI1
aI1
aI1
aI0
aI1
aI1
aI0
aI1
aI1
aI1
aI1
aI1
aI0
aI1
aI1
aI1
aI1
aI1
aI0
asg152
VMoscow SU Trinity: Akhmedov, Gorbunov, Shlyunkin
p193
sba(i__main__
Team
p194
(dp195
g150
(lp196
I0
aI1
aI1
aI1
aI1
aI0
aI1
aI1
aI1
aI1
aI1
aI0
aI1
aI1
aI1
aI1
aI1
aI1
aI1
aI1
aI0
aI1
aI1
aI0
aI1
aI1
aI1
aI1
aI1
aI0
aI1
aI1
aI1
aI1
aI1
aI1
asg152
VSPb SU 3: Gulikov, Makarov, Sayranov
p197
sba(i__main__
Team
p198
(dp199
g150
(lp200
I1
aI1
aI1
aI1
aI1
aI1
aI1
aI0
aI1
aI1
aI1
aI1
aI1
aI1
aI1
aI1
aI1
aI1
aI1
aI1
aI0
aI0
aI1
aI0
aI1
aI1
aI1
aI1
aI1
aI0
aI1
aI1
aI1
aI0
aI1
aI0
asg152
VSPb ITMO University 2: Belonogov, Podtelkin, Zban
p201
sba(i__main__
Team
p202
(dp203
g150
(lp204
I1
aI1
aI1
aI1
aI1
aI1
aI0
aI1
aI1
aI1
aI1
aI0
aI1
aI1
aI1
aI1
aI1
aI1
aI1
aI1
aI1
aI0
aI1
aI0
aI1
aI1
aI1
aI1
aI1
aI0
aI1
aI1
aI1
aI0
aI1
aI0
asg152
VNizhny Novgorod SU: Epifanov, Kalinin, Krivonosov
p205
sba(i__main__
Team
p206
(dp207
g150
(lp208
I0
aI1
aI1
aI1
aI1
aI1
aI0
aI1
aI1
aI1
aI1
aI0
aI1
aI1
aI1
aI1
aI1
aI1
aI1
aI1
aI0
aI0
aI1
aI1
aI1
aI1
aI1
aI1
aI1
aI0
aI1
aI1
aI1
aI0
aI1
aI1
asg152
VZhukov Team: Zhukov
p209
sba(i__main__
Team
p210
(dp211
g150
(lp212
I0
aI1
aI1
aI1
aI1
aI1
aI1
aI1
aI1
aI1
aI1
aI1
aI1
aI1
aI1
aI1
aI1
aI1
aI1
aI1
aI0
aI0
aI0
aI1
aI1
aI1
aI1
aI1
aI1
aI0
aI0
aI1
aI1
aI0
aI1
aI1
asg152
VInnopolis U Known: Kiyan, Mashrabov, Savinov
p213
sba(i__main__
Team
p214
(dp215
g150
(lp216
I0
aI0
aI1
aI1
aI1
aI1
aI1
aI0
aI1
aI1
aI0
aI0
aI1
aI1
aI1
aI1
aI1
aI1
aI1
aI1
aI0
aI0
aI1
aI1
aI1
aI1
aI1
aI1
aI1
aI1
aI1
aI1
aI1
aI0
aI1
aI1
asg152
VSPb ITMO University 1: Bardashevich, Kovsharov, Smykalov
p217
sba(i__main__
Team
p218
(dp219
g150
(lp220
I0
aI1
aI1
aI1
aI1
aI1
aI0
aI1
aI1
aI1
aI1
aI0
aI1
aI1
aI1
aI1
aI1
aI1
aI1
aI1
aI0
aI0
aI1
aI1
aI1
aI1
aI1
aI1
aI1
aI0
aI1
aI1
aI1
aI0
aI1
aI0
asg152
VMoscow IPT Jinotega: Semenov, Smirnov, Zhuk
p221
sba(i__main__
Team
p222
(dp223
g150
(lp224
I1
aI1
aI1
aI1
aI1
aI1
aI1
aI0
aI1
aI1
aI1
aI1
aI1
aI1
aI1
aI1
aI1
aI1
aI1
aI1
aI0
aI0
aI1
aI0
aI1
aI1
aI0
aI1
aI1
aI0
aI0
aI1
aI1
aI0
aI1
aI1
asg152
VSPb AU 1: Generation Z: Bogomolov, Podguzov, Smirnov
p225
sba(i__main__
Team
p226
(dp227
g150
(lp228
I0
aI1
aI1
aI1
aI1
aI1
aI1
aI0
aI1
aI1
aI1
aI0
aI1
aI1
aI1
aI1
aI1
aI1
aI0
aI1
aI1
aI0
aI1
aI0
aI1
aI1
aI1
aI1
aI1
aI0
aI1
aI1
aI1
aI0
aI1
aI0
asg152
VSaratov SU Daemons: Davtyan, Kudasov, Sagunov
p229
sba(i__main__
Team
p230
(dp231
g150
(lp232
I1
aI1
aI1
aI1
aI0
aI1
aI0
aI0
aI1
aI1
aI0
aI1
aI1
aI1
aI1
aI1
aI1
aI1
aI1
aI1
aI0
aI0
aI1
aI1
aI1
aI1
aI0
aI1
aI1
aI0
aI1
aI1
aI1
aI0
aI1
aI1
asg152
VBelarusian SU 2: Sataneuski, Vilcheuski, Zhyrkevich
p233
sba(i__main__
Team
p234
(dp235
g150
(lp236
I0
aI1
aI1
aI1
aI1
aI1
aI0
aI0
aI1
aI1
aI1
aI0
aI1
aI1
aI1
aI1
aI1
aI1
aI0
aI1
aI0
aI0
aI1
aI0
aI1
aI1
aI1
aI1
aI1
aI0
aI1
aI1
aI1
aI0
aI1
aI0
asg152
VBelarusian SU 1 Air Penguins: Poliyevits, Sheftelevich, Sokal
p237
sba(i__main__
Team
p238
(dp239
g150
(lp240
I1
aI1
aI1
aI1
aI1
aI1
aI0
aI0
aI1
aI1
aI1
aI1
aI1
aI1
aI1
aI1
aI1
aI1
aI1
aI1
aI0
aI0
aI1
aI0
aI1
aI1
aI0
aI1
aI0
aI0
aI0
aI1
aI1
aI0
aI1
aI0
asg152
VMoscow IPT Amethysts: Belykh, Popovkin, Proskurin
p241
sba(i__main__
Team
p242
(dp243
g150
(lp244
I0
aI0
aI1
aI1
aI0
aI1
aI0
aI1
aI1
aI1
aI1
aI0
aI1
aI1
aI1
aI1
aI1
aI1
aI1
aI1
aI0
aI0
aI1
aI1
aI1
aI1
aI0
aI1
aI0
aI0
aI0
aI1
aI1
aI0
aI1
aI1
asg152
VPetrozavodsk SU 1: Ermishin, Filev, Starkov
p245
sba(i__main__
Team
p246
(dp247
g150
(lp248
I0
aI1
aI1
aI1
aI0
aI1
aI0
aI0
aI1
aI1
aI0
aI0
aI1
aI1
aI1
aI1
aI1
aI1
aI0
aI1
aI0
aI0
aI1
aI1
aI1
aI1
aI1
aI1
aI1
aI0
aI0
aI1
aI1
aI0
aI1
aI1
asg152
VGame of Nolife: Heinaevaara, Hirviniemi, Korhonen
p249
sba(i__main__
Team
p250
(dp251
g150
(lp252
I1
aI1
aI0
aI1
aI1
aI1
aI0
aI0
aI1
aI1
aI0
aI1
aI1
aI1
aI1
aI1
aI1
aI1
aI1
aI1
aI0
aI0
aI1
aI0
aI1
aI1
aI0
aI1
aI1
aI0
aI0
aI1
aI1
aI0
aI1
aI0
asg152
VSPb AU 2: Heartless Turtles: Belova, Stepanov, Zhidkov
p253
sba(i__main__
Team
p254
(dp255
g150
(lp256
I0
aI1
aI1
aI1
aI1
aI1
aI0
aI1
aI1
aI1
aI0
aI1
aI1
aI1
aI1
aI1
aI1
aI1
aI1
aI1
aI0
aI0
aI0
aI0
aI1
aI1
aI0
aI1
aI1
aI0
aI0
aI1
aI1
aI0
aI1
aI0
asg152
VUral FU 2: Borozdin, Khanova, Leskov
p257
sba(i__main__
Team
p258
(dp259
g150
(lp260
I0
aI1
aI0
aI1
aI1
aI1
aI0
aI0
aI1
aI1
aI1
aI0
aI1
aI1
aI1
aI1
aI1
aI1
aI1
aI1
aI0
aI0
aI1
aI0
aI1
aI1
aI0
aI1
aI0
aI0
aI1
aI1
aI1
aI1
aI1
aI0
asg152
VMoscow SU Narwhales: Dzhunusov, Pavlov, Pobegaylo
p261
sba(i__main__
Team
p262
(dp263
g150
(lp264
I0
aI0
aI1
aI1
aI0
aI1
aI0
aI0
aI1
aI1
aI1
aI1
aI1
aI1
aI1
aI1
aI1
aI1
aI0
aI1
aI0
aI0
aI1
aI0
aI1
aI1
aI0
aI1
aI1
aI0
aI0
aI1
aI1
aI0
aI1
aI0
asg152
VMoscow AI: Mingalev, Safronov, Yushchenko
p265
sba(i__main__
Team
p266
(dp267
g150
(lp268
I0
aI0
aI1
aI1
aI1
aI1
aI0
aI0
aI1
aI1
aI1
aI0
aI1
aI1
aI1
aI1
aI1
aI1
aI0
aI1
aI0
aI0
aI1
aI0
aI1
aI1
aI0
aI1
aI1
aI0
aI0
aI1
aI1
aI0
aI1
aI0
asg152
VMEPhI Cupcakes: Bidzilya, Minakov, Urtashev
p269
sba(i__main__
Team
p270
(dp271
g150
(lp272
I0
aI1
aI0
aI1
aI1
aI1
aI0
aI0
aI0
aI1
aI0
aI0
aI1
aI1
aI1
aI1
aI1
aI1
aI1
aI1
aI0
aI0
aI0
aI0
aI1
aI1
aI1
aI1
aI1
aI0
aI0
aI1
aI1
aI0
aI1
aI0
asg152
Vkarelia16w-58
p273
sba(i__main__
Team
p274
(dp275
g150
(lp276
I0
aI1
aI1
aI1
aI0
aI1
aI0
aI0
aI0
aI1
aI1
aI0
aI1
aI1
aI1
aI1
aI1
aI1
aI0
aI1
aI0
aI0
aI0
aI0
aI1
aI1
aI0
aI1
aI1
aI0
aI0
aI1
aI1
aI0
aI1
aI0
asg152
VJagiellonian University in Krakow: Kaszuba, Maziarz, Zajac
p277
sba(i__main__
Team
p278
(dp279
g150
(lp280
I0
aI1
aI1
aI1
aI0
aI1
aI0
aI0
aI0
aI1
aI0
aI0
aI1
aI1
aI1
aI1
aI1
aI1
aI0
aI1
aI0
aI0
aI1
aI0
aI1
aI1
aI0
aI1
aI0
aI0
aI0
aI1
aI1
aI0
aI1
aI0
asg152
VSaratov SU 2: Dalabaev, Los, Smirnov
p281
sba(i__main__
Team
p282
(dp283
g150
(lp284
I0
aI0
aI0
aI1
aI0
aI1
aI0
aI0
aI1
aI1
aI1
aI0
aI1
aI1
aI1
aI1
aI1
aI1
aI1
aI1
aI0
aI0
aI0
aI0
aI0
aI1
aI1
aI1
aI0
aI0
aI0
aI1
aI1
aI0
aI1
aI0
asg152
VSPb ITMO University 3: Budin, Latyshev, Yakutov
p285
sba(i__main__
Team
p286
(dp287
g150
(lp288
I0
aI1
aI0
aI1
aI1
aI1
aI0
aI0
aI1
aI1
aI0
aI0
aI1
aI1
aI1
aI1
aI1
aI1
aI0
aI1
aI0
aI0
aI0
aI0
aI1
aI1
aI0
aI1
aI0
aI0
aI0
aI1
aI1
aI0
aI1
aI0
asg152
VSPb AU 3: Durandal: Chernikova, Labutin, Shcherbin
p289
sba(i__main__
Team
p290
(dp291
g150
(lp292
I0
aI0
aI1
aI1
aI0
aI1
aI0
aI0
aI1
aI1
aI1
aI0
aI1
aI1
aI1
aI1
aI1
aI1
aI0
aI1
aI0
aI0
aI0
aI0
aI1
aI0
aI0
aI1
aI0
aI0
aI0
aI1
aI1
aI0
aI1
aI0
asg152
VMoscow IPT Hello: Kulkov, Sverdlov, Uvarov
p293
sba(i__main__
Team
p294
(dp295
g150
(lp296
I0
aI1
aI1
aI1
aI0
aI1
aI0
aI0
aI1
aI1
aI0
aI0
aI1
aI1
aI1
aI1
aI1
aI1
aI0
aI0
aI0
aI0
aI0
aI0
aI1
aI1
aI0
aI1
aI0
aI0
aI0
aI0
aI1
aI0
aI1
aI0
asg152
VNovosibirsk SU 4: Smirnov, Viktorov, Vishnevskiy
p297
sba(i__main__
Team
p298
(dp299
g150
(lp300
I0
aI0
aI0
aI1
aI0
aI1
aI0
aI0
aI0
aI1
aI0
aI0
aI1
aI1
aI1
aI1
aI1
aI1
aI1
aI1
aI0
aI0
aI0
aI0
aI1
aI1
aI0
aI1
aI1
aI0
aI0
aI1
aI0
aI0
aI1
aI0
asg152
VDoCThors: Chaparov, Popa, Posdarascu
p301
sba(i__main__
Team
p302
(dp303
g150
(lp304
I0
aI0
aI1
aI1
aI1
aI1
aI0
aI0
aI1
aI1
aI0
aI0
aI1
aI1
aI1
aI1
aI1
aI1
aI1
aI1
aI0
aI0
aI0
aI0
aI0
aI0
aI0
aI1
aI0
aI0
aI0
aI1
aI0
aI0
aI1
aI0
asg152
VHSE Random Shuffle: Aleksandrov, Belov, Zetilov
p305
sba(i__main__
Team
p306
(dp307
g150
(lp308
I0
aI0
aI1
aI1
aI0
aI1
aI0
aI0
aI1
aI1
aI0
aI0
aI1
aI1
aI1
aI1
aI1
aI1
aI0
aI1
aI0
aI0
aI1
aI0
aI0
aI1
aI0
aI1
aI0
aI0
aI0
aI0
aI1
aI0
aI1
aI0
asg152
VKazakh-British TU 1: Bekbolatuly, Zhussupov
p309
sba(i__main__
Team
p310
(dp311
g150
(lp312
I0
aI0
aI0
aI1
aI0
aI1
aI0
aI0
aI1
aI1
aI0
aI0
aI1
aI1
aI1
aI1
aI1
aI1
aI0
aI1
aI0
aI0
aI0
aI0
aI0
aI1
aI0
aI1
aI0
aI0
aI0
aI1
aI1
aI0
aI1
aI0
asg152
VNorthern (Arctic) FU: Chesnokov, Dodin, Popovich
p313
sba(i__main__
Team
p314
(dp315
g150
(lp316
I0
aI0
aI0
aI1
aI0
aI1
aI0
aI0
aI0
aI1
aI0
aI0
aI1
aI1
aI1
aI1
aI0
aI1
aI1
aI1
aI0
aI0
aI0
aI0
aI1
aI1
aI0
aI1
aI1
aI0
aI0
aI0
aI1
aI0
aI1
aI0
asg152
VSPb ITMO University 4: Biarynchyk, Kisialiou, Korchagin
p317
sba(i__main__
Team
p318
(dp319
g150
(lp320
I0
aI1
aI0
aI1
aI0
aI1
aI0
aI0
aI0
aI0
aI0
aI0
aI1
aI1
aI1
aI1
aI1
aI1
aI0
aI1
aI0
aI0
aI1
aI0
aI0
aI1
aI0
aI1
aI0
aI0
aI0
aI1
aI1
aI0
aI1
aI0
asg152
VCharles University: Konecny, Rozhon, Simsa
p321
sba(i__main__
Team
p322
(dp323
g150
(lp324
I0
aI0
aI0
aI1
aI0
aI1
aI0
aI0
aI1
aI1
aI0
aI0
aI1
aI1
aI1
aI1
aI1
aI1
aI0
aI1
aI0
aI0
aI1
aI0
aI0
aI1
aI0
aI1
aI0
aI0
aI0
aI0
aI1
aI0
aI1
aI0
asg152
VMoscow SU Nday: Adimov, Agulenko
p325
sba(i__main__
Team
p326
(dp327
g150
(lp328
I0
aI0
aI0
aI1
aI0
aI1
aI0
aI0
aI1
aI1
aI0
aI0
aI1
aI1
aI1
aI1
aI1
aI0
aI0
aI1
aI0
aI0
aI1
aI0
aI1
aI1
aI0
aI1
aI0
aI0
aI0
aI0
aI1
aI0
aI1
aI0
asg152
VNazarbayev U 1: Adilbekov, Kalmurzayev, Myrzakerey
p329
sba(i__main__
Team
p330
(dp331
g150
(lp332
I0
aI0
aI0
aI1
aI0
aI1
aI0
aI0
aI1
aI1
aI1
aI0
aI1
aI1
aI1
aI1
aI0
aI1
aI0
aI1
aI0
aI0
aI1
aI0
aI0
aI1
aI0
aI1
aI0
aI0
aI0
aI0
aI0
aI0
aI1
aI0
asg152
VKazakh-British TU 3: Aitzhan, Nurmash
p333
sba(i__main__
Team
p334
(dp335
g150
(lp336
I0
aI0
aI0
aI1
aI0
aI1
aI0
aI0
aI1
aI1
aI0
aI0
aI1
aI1
aI1
aI1
aI0
aI1
aI0
aI1
aI0
aI0
aI0
aI0
aI0
aI1
aI0
aI1
aI0
aI0
aI0
aI0
aI1
aI0
aI1
aI0
asg152
VKazakh-British TU 4: Tolegenov, Toremuratuly
p337
sba(i__main__
Team
p338
(dp339
g150
(lp340
I0
aI0
aI0
aI1
aI0
aI1
aI0
aI0
aI1
aI1
aI1
aI0
aI1
aI1
aI1
aI1
aI1
aI1
aI0
aI1
aI0
aI0
aI0
aI0
aI0
aI0
aI0
aI1
aI0
aI0
aI0
aI0
aI0
aI0
aI1
aI0
asg152
VCTU Vallime 2: Brozek, Mitura, Studeny
p341
sba(i__main__
Team
p342
(dp343
g150
(lp344
I0
aI0
aI0
aI1
aI0
aI1
aI0
aI0
aI1
aI1
aI0
aI0
aI1
aI1
aI1
aI1
aI1
aI0
aI0
aI1
aI0
aI0
aI0
aI1
aI0
aI0
aI0
aI1
aI0
aI0
aI0
aI0
aI1
aI0
aI1
aI0
asg152
VKazakh-British TU 2: Akhanov, Amanov, Bolatbekov
p345
sba(i__main__
Team
p346
(dp347
g150
(lp348
I0
aI0
aI0
aI1
aI0
aI1
aI0
aI0
aI0
aI1
aI0
aI0
aI1
aI1
aI1
aI1
aI1
aI1
aI0
aI1
aI0
aI0
aI0
aI0
aI0
aI0
aI0
aI1
aI0
aI0
aI0
aI1
aI0
aI0
aI1
aI0
asg152
VWarsaw U Kkonen: Czajka, Farbis, Pszeniczny
p349
sba(i__main__
Team
p350
(dp351
g150
(lp352
I0
aI0
aI1
aI1
aI0
aI1
aI0
aI0
aI0
aI0
aI0
aI0
aI1
aI1
aI1
aI1
aI1
aI1
aI0
aI1
aI0
aI0
aI0
aI0
aI0
aI1
aI0
aI1
aI0
aI0
aI0
aI0
aI0
aI0
aI1
aI0
asg152
VNazarbayev U 2: Jubatyrov, Kassenov, Orynkul
p353
sba(i__main__
Team
p354
(dp355
g150
(lp356
I0
aI0
aI0
aI0
aI0
aI1
aI0
aI0
aI0
aI0
aI0
aI0
aI1
aI1
aI1
aI1
aI1
aI1
aI0
aI1
aI0
aI0
aI0
aI0
aI1
aI0
aI0
aI1
aI0
aI0
aI0
aI0
aI1
aI0
aI1
aI0
asg152
VPetrozavodsk SU 2: Alkin, Ermolin, Titov
p357
sba(i__main__
Team
p358
(dp359
g150
(lp360
I0
aI0
aI0
aI0
aI0
aI0
aI0
aI0
aI0
aI0
aI0
aI0
aI1
aI1
aI1
aI1
aI0
aI1
aI0
aI1
aI0
aI0
aI0
aI0
aI1
aI1
aI0
aI1
aI1
aI0
aI0
aI0
aI0
aI0
aI1
aI0
asg152
VUniversity College London Carrots: Georgiev, Parasca
p361
sba(i__main__
Team
p362
(dp363
g150
(lp364
I0
aI0
aI0
aI1
aI0
aI1
aI0
aI0
aI0
aI0
aI0
aI0
aI0
aI1
aI1
aI1
aI1
aI0
aI0
aI1
aI0
aI0
aI0
aI0
aI0
aI0
aI0
aI1
aI0
aI0
aI0
aI0
aI1
aI0
aI1
aI0
asg152
VLatvia U: Pakalns, Ratnieks
p365
sba(i__main__
Team
p366
(dp367
g150
(lp368
I0
aI0
aI0
aI0
aI0
aI0
aI0
aI0
aI0
aI0
aI0
aI0
aI0
aI0
aI0
aI0
aI0
aI0
aI0
aI0
aI0
aI0
aI0
aI0
aI1
aI1
aI1
aI1
aI0
aI0
aI1
aI0
aI1
aI0
aI1
aI0
asg152
VBurunduk: Kopeliovich Sergey
p369
sba(i__main__
Team
p370
(dp371
g150
(lp372
I0
aI0
aI0
aI0
aI0
aI0
aI0
aI0
aI0
aI0
aI0
aI0
aI1
aI1
aI0
aI1
aI1
aI0
aI0
aI0
aI0
aI0
aI0
aI1
aI0
aI0
aI0
aI0
aI0
aI0
aI0
aI0
aI0
aI0
aI0
aI0
asg152
Vkarelia16w-59
p373
sba(i__main__
Team
p374
(dp375
g150
(lp376
I0
aI0
aI0
aI0
aI0
aI0
aI0
aI0
aI0
aI0
aI0
aI0
aI1
aI1
aI0
aI1
aI0
aI0
aI0
aI0
aI0
aI0
aI0
aI0
aI0
aI0
aI0
aI1
aI0
aI0
aI0
aI0
aI0
aI0
aI0
aI0
asg152
VPetrozavodsk SU Kukushkin: Kukushkin
p377
sba(i__main__
Team
p378
(dp379
g150
(lp380
I0
aI0
aI0
aI0
aI0
aI0
aI0
aI0
aI0
aI0
aI0
aI0
aI1
aI1
aI0
aI0
aI0
aI0
aI0
aI0
aI0
aI0
aI0
aI0
aI0
aI0
aI0
aI1
aI0
aI0
aI0
aI0
aI0
aI0
aI1
aI0
asg152
VPetrozavodsk SU 3: Kobeleva, Korpusenko, Lomazina
p381
sba(i__main__
Team
p382
(dp383
g150
(lp384
I0
aI0
aI0
aI1
aI0
aI1
aI0
aI0
aI0
aI1
aI0
aI0
aI0
aI0
aI0
aI0
aI0
aI0
aI0
aI0
aI0
aI0
aI0
aI0
aI0
aI0
aI0
aI0
aI0
aI0
aI0
aI0
aI0
aI0
aI0
aI0
asg152
VPetrozaovdsk SCH: Buchnev, Chernyshev, Remeslennikov
p385
sba(i__main__
Team
p386
(dp387
g150
(lp388
I0
aI0
aI1
aI0
aI0
aI0
aI0
aI0
aI1
aI0
aI0
aI0
aI0
aI0
aI0
aI0
aI0
aI0
aI0
aI0
aI0
aI0
aI0
aI0
aI0
aI0
aI0
aI0
aI0
aI0
aI0
aI0
aI0
aI0
aI0
aI0
asg152
VBurunduk1
p389
sba(i__main__
Team
p390
(dp391
g150
(lp392
I0
aI1
aI0
aI0
aI0
aI0
aI0
aI0
aI0
aI0
aI0
aI0
aI0
aI0
aI0
aI0
aI0
aI0
aI1
aI0
aI0
aI0
aI0
aI0
aI0
aI0
aI0
aI0
aI0
aI0
aI0
aI0
aI0
aI0
aI0
aI0
asg152
Vkarelia16w-60
p393
sba.