(lp0
I92
a(i__main__
Problem
p1
(dp2
S'date'
p3
V01/09/2014
p4
sS'ac'
p5
I1
sS'letter'
p6
VA
p7
sS'title'
p8
VNumber of Close Strings
p9
sba(i__main__
Problem
p10
(dp11
g3
V01/09/2014
p12
sg5
I1
sg6
VB
p13
sg8
VRandom Domino Placements
p14
sba(i__main__
Problem
p15
(dp16
g3
V01/09/2014
p17
sg5
I32
sg6
VC
p18
sg8
VTwo Equal Squares
p19
sba(i__main__
Problem
p20
(dp21
g3
V01/09/2014
p22
sg5
I9
sg6
VD
p23
sg8
VInterleave Binary Strings
p24
sba(i__main__
Problem
p25
(dp26
g3
V01/09/2014
p27
sg5
I28
sg6
VE
p28
sg8
VAlternate Jumping
p29
sba(i__main__
Problem
p30
(dp31
g3
V01/09/2014
p32
sg5
I1
sg6
VF
p33
sg8
VRecognize Power of Two
p34
sba(i__main__
Problem
p35
(dp36
g3
V01/09/2014
p37
sg5
I27
sg6
VG
p38
sg8
VPower Sum Graphs
p39
sba(i__main__
Problem
p40
(dp41
g3
V01/09/2014
p42
sg5
I4
sg6
VH
p43
sg8
VSimplicity is the Ultimate Sophistication
p44
sba(i__main__
Problem
p45
(dp46
g3
V01/09/2014
p47
sg5
I13
sg6
VI
p48
sg8
V
p49
sba(i__main__
Problem
p50
(dp51
g3
V31/08/2014
p52
sg5
I39
sg6
g7
sg8
VAstronomy Problem
p53
sba(i__main__
Problem
p54
(dp55
g3
V31/08/2014
p56
sg5
I28
sg6
g13
sg8
VBipartite Bicolored Graphs
p57
sba(i__main__
Problem
p58
(dp59
g3
V31/08/2014
p60
sg5
I5
sg6
g18
sg8
VCatalan Numbers
p61
sba(i__main__
Problem
p62
(dp63
g3
V31/08/2014
p64
sg5
I8
sg6
g23
sg8
VDichromatic Trees
p65
sba(i__main__
Problem
p66
(dp67
g3
V31/08/2014
p68
sg5
I34
sg6
g28
sg8
VEbola Virus
p69
sba(i__main__
Problem
p70
(dp71
g3
V31/08/2014
p72
sg5
I37
sg6
g33
sg8
VFigure Skating
p73
sba(i__main__
Problem
p74
(dp75
g3
V31/08/2014
p76
sg5
I36
sg6
g38
sg8
VGame of Col on Bamboo Forests
p77
sba(i__main__
Problem
p78
(dp79
g3
V31/08/2014
p80
sg5
I7
sg6
g43
sg8
VHeavy-Light Decomposition
p81
sba(i__main__
Problem
p82
(dp83
g3
V31/08/2014
p84
sg5
I24
sg6
g48
sg8
VInteractive Memory Management
p85
sba(i__main__
Problem
p86
(dp87
g3
V31/08/2014
p88
sg5
I39
sg6
VJ
p89
sg8
VJingles of a String
p90
sba(i__main__
Problem
p91
(dp92
g3
V30/08/2014
p93
sg5
I30
sg6
g7
sg8
VThe Carpet
p94
sba(i__main__
Problem
p95
(dp96
g3
V30/08/2014
p97
sg5
I23
sg6
g13
sg8
VThe Construction
p98
sba(i__main__
Problem
p99
(dp100
g3
V30/08/2014
p101
sg5
I26
sg6
g18
sg8
VGame of Doubling
p102
sba(i__main__
Problem
p103
(dp104
g3
V30/08/2014
p105
sg5
I6
sg6
g23
sg8
VThe Kingdom
p106
sba(i__main__
Problem
p107
(dp108
g3
V30/08/2014
p109
sg5
I37
sg6
g28
sg8
VLight Bulbs
p110
sba(i__main__
Problem
p111
(dp112
g3
V30/08/2014
p113
sg5
I39
sg6
g33
sg8
VLittle Marketplace
p114
sba(i__main__
Problem
p115
(dp116
g3
V30/08/2014
p117
sg5
I39
sg6
g38
sg8
VThe Matrix
p118
sba(i__main__
Problem
p119
(dp120
g3
V30/08/2014
p121
sg5
I7
sg6
g43
sg8
VThe Museum
p122
sba(i__main__
Problem
p123
(dp124
g3
V30/08/2014
p125
sg5
I20
sg6
g48
sg8
VThe Tape
p126
sba(i__main__
Problem
p127
(dp128
g3
V30/08/2014
p129
sg5
I28
sg6
g89
sg8
VThe Task
p130
sba(i__main__
Problem
p131
(dp132
g3
V30/08/2014
p133
sg5
I0
sg6
VK
p134
sg8
VTeams
p135
sba(i__main__
Problem
p136
(dp137
g3
V28/08/2014
p138
sg5
I30
sg6
g7
sg8
VMorse Code
p139
sba(i__main__
Problem
p140
(dp141
g3
V28/08/2014
p142
sg5
I34
sg6
g13
sg8
VDeadly Sin
p143
sba(i__main__
Problem
p144
(dp145
g3
V28/08/2014
p146
sg5
I31
sg6
g18
sg8
VSupermutations
p147
sba(i__main__
Problem
p148
(dp149
g3
V28/08/2014
p150
sg5
I15
sg6
g23
sg8
VSerpentine
p151
sba(i__main__
Problem
p152
(dp153
g3
V28/08/2014
p154
sg5
I37
sg6
g28
sg8
VBest Student
p155
sba(i__main__
Problem
p156
(dp157
g3
V28/08/2014
p158
sg5
I35
sg6
g33
sg8
VSnyrk's prediction
p159
sba(i__main__
Problem
p160
(dp161
g3
V28/08/2014
p162
sg5
I39
sg6
g38
sg8
VAccordion
p163
sba(i__main__
Problem
p164
(dp165
g3
V28/08/2014
p166
sg5
I10
sg6
g43
sg8
VMines
p167
sba(i__main__
Problem
p168
(dp169
g3
V28/08/2014
p170
sg5
I28
sg6
g48
sg8
VPolynomials
p171
sba(i__main__
Problem
p172
(dp173
g3
V28/08/2014
p174
sg5
I34
sg6
g89
sg8
VForeign Currency Exchange
p175
sba(i__main__
Problem
p176
(dp177
g3
V27/08/2014
p178
sg5
I39
sg6
g7
sg8
VInversion
p179
sba(i__main__
Problem
p180
(dp181
g3
V27/08/2014
p182
sg5
I30
sg6
g13
sg8
VPaths on the Tree
p183
sba(i__main__
Problem
p184
(dp185
g3
V27/08/2014
p186
sg5
I27
sg6
g18
sg8
VLeast Common Multiple
p187
sba(i__main__
Problem
p188
(dp189
g3
V27/08/2014
p190
sg5
I10
sg6
g23
sg8
VLinear Recursive Sequence
p191
sba(i__main__
Problem
p192
(dp193
g3
V27/08/2014
p194
sg5
I37
sg6
g28
sg8
VParenthese Sequence
p195
sba(i__main__
Problem
p196
(dp197
g3
V27/08/2014
p198
sg5
I24
sg6
g33
sg8
VCount on the Path
p199
sba(i__main__
Problem
p200
(dp201
g3
V27/08/2014
p202
sg5
I36
sg6
g38
sg8
VPermutation
p203
sba(i__main__
Problem
p204
(dp205
g3
V27/08/2014
p206
sg5
I7
sg6
g43
sg8
VQueries on the Subtree
p207
sba(i__main__
Problem
p208
(dp209
g3
V27/08/2014
p210
sg5
I29
sg6
g48
sg8
VExclusive Or
p211
sba(i__main__
Problem
p212
(dp213
g3
V27/08/2014
p214
sg5
I7
sg6
g89
sg8
VExpectation
p215
sba(i__main__
Problem
p216
(dp217
g3
V27/08/2014
p218
sg5
I17
sg6
g134
sg8
VPalindromic Refrain
p219
sba(i__main__
Problem
p220
(dp221
g3
V26/08/2014
p222
sg5
I0
sg6
g7
sg8
VPizza
p223
sba(i__main__
Problem
p224
(dp225
g3
V26/08/2014
p226
sg5
I34
sg6
g13
sg8
VDivide and Conquer
p227
sba(i__main__
Problem
p228
(dp229
g3
V26/08/2014
p230
sg5
I14
sg6
g18
sg8
VSpatial Thinking
p231
sba(i__main__
Problem
p232
(dp233
g3
V26/08/2014
p234
sg5
I5
sg6
g23
sg8
VPalindromes
p235
sba(i__main__
Problem
p236
(dp237
g3
V26/08/2014
p238
sg5
I11
sg6
g28
sg8
VTravelling by River
p239
sba(i__main__
Problem
p240
(dp241
g3
V26/08/2014
p242
sg5
I8
sg6
g33
sg8
VCake
p243
sba(i__main__
Problem
p244
(dp245
g3
V26/08/2014
p246
sg5
I5
sg6
g38
sg8
VVideo Arcade Machines
p247
sba(i__main__
Problem
p248
(dp249
g3
V26/08/2014
p250
sg5
I15
sg6
g43
sg8
VBeautiful Pairs
p251
sba(i__main__
Problem
p252
(dp253
g3
V26/08/2014
p254
sg5
I25
sg6
g48
sg8
VBinary Matrices
p255
sba(i__main__
Problem
p256
(dp257
g3
V26/08/2014
p258
sg5
I31
sg6
g89
sg8
VQuake
p259
sba(i__main__
Problem
p260
(dp261
g3
V24/08/2014
p262
sg5
I35
sg6
g7
sg8
VIntersect Until You're Sick of It
p263
sba(i__main__
Problem
p264
(dp265
g3
V24/08/2014
p266
sg5
I35
sg6
g13
sg8
VBinary Palindromes
p267
sba(i__main__
Problem
p268
(dp269
g3
V24/08/2014
p270
sg5
I35
sg6
g18
sg8
VChess
p271
sba(i__main__
Problem
p272
(dp273
g3
V24/08/2014
p274
sg5
I22
sg6
g23
sg8
VMinimum Cover
p275
sba(i__main__
Problem
p276
(dp277
g3
V24/08/2014
p278
sg5
I7
sg6
g28
sg8
VBlack-and-white Square
p279
sba(i__main__
Problem
p280
(dp281
g3
V24/08/2014
p282
sg5
I17
sg6
g33
sg8
VPalindromes and Superpower-2
p283
sba(i__main__
Problem
p284
(dp285
g3
V24/08/2014
p286
sg5
I26
sg6
g38
sg8
VNanomatryoshkas
p287
sba(i__main__
Problem
p288
(dp289
g3
V24/08/2014
p290
sg5
I13
sg6
g43
sg8
VNikita
p291
sba(i__main__
Problem
p292
(dp293
g3
V24/08/2014
p294
sg5
I19
sg6
g48
sg8
VKirill the Gardener - 2
p295
sba(i__main__
Problem
p296
(dp297
g3
V24/08/2014
p298
sg5
I5
sg6
g89
sg8
V31 palindromes
p299
sba(i__main__
Problem
p300
(dp301
g3
V24/08/2014
p302
sg5
I37
sg6
g134
sg8
VNon-binary Palindromes
p303
sba(i__main__
Problem
p304
(dp305
g3
V23/08/2014
p306
sg5
I30
sg6
g7
sg8
VAle
p307
sba(i__main__
Problem
p308
(dp309
g3
V23/08/2014
p310
sg5
I28
sg6
g13
sg8
VBanana Sambuca
p311
sba(i__main__
Problem
p312
(dp313
g3
V23/08/2014
p314
sg5
I29
sg6
g18
sg8
VChivas
p315
sba(i__main__
Problem
p316
(dp317
g3
V23/08/2014
p318
sg5
I20
sg6
g23
sg8
VDewar's
p319
sba(i__main__
Problem
p320
(dp321
g3
V23/08/2014
p322
sg5
I5
sg6
g28
sg8
VEspumoso
p323
sba(i__main__
Problem
p324
(dp325
g3
V23/08/2014
p326
sg5
I24
sg6
g33
sg8
VFraisette
p327
sba(i__main__
Problem
p328
(dp329
g3
V23/08/2014
p330
sg5
I18
sg6
g38
sg8
VGarrafeira
p331
sba(i__main__
Problem
p332
(dp333
g3
V23/08/2014
p334
sg5
I32
sg6
g43
sg8
VHorilka
p335
sba(i__main__
Problem
p336
(dp337
g3
V23/08/2014
p338
sg5
I33
sg6
g48
sg8
VIrish Whiskey
p339
sba(i__main__
Problem
p340
(dp341
g3
V23/08/2014
p342
sg5
I18
sg6
g89
sg8
VJagermeister
p343
sba(i__main__
Problem
p344
(dp345
g3
V23/08/2014
p346
sg5
I17
sg6
g134
sg8
VKvass
p347
sba(i__main__
Problem
p348
(dp349
g3
V22/08/2014
p350
sg5
I11
sg6
g7
sg8
VAdditive Class
p351
sba(i__main__
Problem
p352
(dp353
g3
V22/08/2014
p354
sg5
I29
sg6
g13
sg8
VBoard Blitz
p355
sba(i__main__
Problem
p356
(dp357
g3
V22/08/2014
p358
sg5
I17
sg6
g18
sg8
VDivisor Count
p359
sba(i__main__
Problem
p360
(dp361
g3
V22/08/2014
p362
sg5
I36
sg6
g23
sg8
VDomino Tiling
p363
sba(i__main__
Problem
p364
(dp365
g3
V22/08/2014
p366
sg5
I12
sg6
g28
sg8
VHourglass
p367
sba(i__main__
Problem
p368
(dp369
g3
V22/08/2014
p370
sg5
I10
sg6
g33
sg8
Vk-th Meander
p371
sba(i__main__
Problem
p372
(dp373
g3
V22/08/2014
p374
sg5
I34
sg6
g38
sg8
VRecords and Cycles
p375
sba(i__main__
Problem
p376
(dp377
g3
V22/08/2014
p378
sg5
I30
sg6
g43
sg8
VRock-Paper-Scissors on a Plane
p379
sba(i__main__
Problem
p380
(dp381
g3
V22/08/2014
p382
sg5
I36
sg6
g48
sg8
VSet Operations
p383
sbaI50
a(i__main__
Team
p384
(dp385
S'solved'
p386
(lp387
I0
aI0
aI1
aI1
aI1
aI0
aI1
aI1
aI1
aI1
aI1
aI0
aI1
aI1
aI1
aI1
aI1
aI1
aI1
aI1
aI1
aI1
aI1
aI1
aI1
aI1
aI1
aI1
aI1
aI0
aI1
aI1
aI1
aI1
aI1
aI1
aI1
aI1
aI1
aI1
aI1
aI1
aI1
aI1
aI1
aI1
aI1
aI1
aI1
aI1
aI1
aI0
aI1
aI1
aI1
aI1
aI1
aI1
aI1
aI1
aI1
aI1
aI1
aI1
aI1
aI1
aI1
aI1
aI1
aI1
aI1
aI1
aI1
aI1
aI1
aI1
aI1
aI1
aI1
aI1
aI1
aI1
aI1
aI1
aI1
aI1
aI1
aI1
aI1
aI1
aI1
aI1
asS'name'
p388
VUral FU Dandelion: Danilyuk, Merkurev, Sivukhin
p389
sba(i__main__
Team
p390
(dp391
g386
(lp392
I0
aI0
aI1
aI1
aI1
aI0
aI1
aI0
aI0
aI1
aI1
aI1
aI1
aI1
aI1
aI1
aI0
aI1
aI1
aI1
aI1
aI1
aI1
aI1
aI1
aI1
aI1
aI1
aI1
aI0
aI1
aI1
aI1
aI1
aI1
aI1
aI1
aI1
aI1
aI1
aI1
aI1
aI1
aI1
aI1
aI1
aI1
aI1
aI1
aI1
aI1
aI0
aI1
aI1
aI1
aI1
aI1
aI1
aI1
aI1
aI1
aI1
aI1
aI1
aI1
aI1
aI1
aI1
aI1
aI1
aI1
aI1
aI1
aI1
aI1
aI1
aI1
aI1
aI1
aI1
aI1
aI1
aI1
aI1
aI1
aI1
aI1
aI1
aI1
aI1
aI1
aI1
asg388
VMoscow IPT Zzyzx: Ivaschenko, Savinov, Smirnov
p393
sba(i__main__
Team
p394
(dp395
g386
(lp396
I0
aI0
aI1
aI1
aI1
aI0
aI1
aI1
aI1
aI1
aI1
aI1
aI1
aI1
aI1
aI1
aI1
aI1
aI1
aI1
aI1
aI1
aI1
aI1
aI1
aI1
aI1
aI1
aI1
aI0
aI1
aI1
aI1
aI1
aI1
aI1
aI1
aI1
aI1
aI1
aI1
aI1
aI1
aI1
aI1
aI1
aI1
aI0
aI1
aI1
aI1
aI0
aI1
aI1
aI1
aI1
aI1
aI0
aI1
aI1
aI1
aI1
aI1
aI1
aI1
aI1
aI1
aI1
aI1
aI1
aI0
aI1
aI1
aI1
aI1
aI1
aI0
aI1
aI1
aI1
aI1
aI1
aI1
aI1
aI1
aI1
aI1
aI1
aI1
aI1
aI1
aI1
asg388
VSPb NRU ITMO tourist: Korotkevich
p397
sba(i__main__
Team
p398
(dp399
g386
(lp400
I1
aI1
aI1
aI1
aI1
aI0
aI1
aI0
aI1
aI1
aI1
aI0
aI1
aI1
aI1
aI1
aI1
aI1
aI1
aI1
aI1
aI1
aI0
aI1
aI1
aI1
aI0
aI1
aI1
aI0
aI1
aI1
aI1
aI1
aI1
aI1
aI1
aI1
aI1
aI1
aI1
aI1
aI1
aI1
aI1
aI1
aI1
aI1
aI1
aI1
aI1
aI0
aI1
aI1
aI1
aI1
aI0
aI0
aI1
aI1
aI1
aI1
aI1
aI1
aI1
aI0
aI1
aI1
aI1
aI1
aI1
aI1
aI1
aI1
aI1
aI1
aI1
aI1
aI1
aI1
aI1
aI1
aI1
aI1
aI1
aI1
aI1
aI1
aI1
aI1
aI1
aI1
asg388
VMoscow IPT The Sun: Chebanov, Mashrabov, Tikhomirov
p401
sba(i__main__
Team
p402
(dp403
g386
(lp404
I0
aI0
aI1
aI0
aI1
aI0
aI1
aI0
aI1
aI1
aI1
aI1
aI0
aI1
aI1
aI1
aI0
aI1
aI1
aI1
aI1
aI1
aI0
aI1
aI1
aI1
aI0
aI1
aI1
aI0
aI1
aI1
aI1
aI1
aI1
aI1
aI1
aI1
aI1
aI1
aI1
aI1
aI1
aI1
aI1
aI1
aI1
aI1
aI1
aI1
aI1
aI0
aI1
aI1
aI1
aI1
aI1
aI0
aI0
aI1
aI1
aI1
aI1
aI1
aI1
aI1
aI1
aI1
aI1
aI1
aI1
aI1
aI1
aI1
aI1
aI1
aI1
aI1
aI1
aI1
aI1
aI1
aI1
aI1
aI1
aI1
aI1
aI1
aI1
aI1
aI1
aI1
asg388
VUral FU Bear companions: Borozdin, Kuchumov, Kungurtsev
p405
sba(i__main__
Team
p406
(dp407
g386
(lp408
I0
aI0
aI1
aI1
aI1
aI1
aI1
aI1
aI1
aI1
aI1
aI0
aI1
aI1
aI1
aI1
aI1
aI1
aI1
aI1
aI1
aI1
aI0
aI1
aI1
aI1
aI0
aI1
aI1
aI0
aI1
aI1
aI1
aI1
aI1
aI1
aI1
aI0
aI1
aI1
aI1
aI1
aI1
aI1
aI1
aI1
aI1
aI0
aI1
aI0
aI1
aI0
aI1
aI1
aI0
aI1
aI0
aI0
aI1
aI1
aI1
aI1
aI1
aI1
aI1
aI1
aI1
aI1
aI1
aI1
aI0
aI1
aI1
aI1
aI1
aI1
aI0
aI1
aI1
aI1
aI1
aI1
aI1
aI1
aI1
aI1
aI1
aI1
aI1
aI1
aI1
aI1
asg388
VSPb NRU ITMO 1: Bardashevich, Minaev, Vasilyev
p409
sba(i__main__
Team
p410
(dp411
g386
(lp412
I0
aI0
aI1
aI0
aI1
aI0
aI1
aI0
aI1
aI1
aI1
aI0
aI0
aI1
aI1
aI1
aI1
aI1
aI1
aI1
aI1
aI1
aI1
aI1
aI1
aI1
aI0
aI1
aI1
aI0
aI1
aI1
aI1
aI1
aI1
aI1
aI1
aI1
aI1
aI1
aI1
aI1
aI1
aI0
aI1
aI1
aI1
aI1
aI1
aI1
aI1
aI0
aI1
aI1
aI0
aI1
aI1
aI0
aI1
aI1
aI1
aI1
aI1
aI1
aI1
aI1
aI1
aI1
aI1
aI1
aI0
aI1
aI1
aI1
aI1
aI1
aI0
aI1
aI1
aI1
aI1
aI1
aI1
aI1
aI1
aI1
aI1
aI1
aI1
aI1
aI1
aI1
asg388
VSaratov SU 2: Gusarov, Kudasov, Los
p413
sba(i__main__
Team
p414
(dp415
g386
(lp416
I0
aI0
aI1
aI1
aI1
aI0
aI1
aI0
aI1
aI1
aI1
aI0
aI0
aI1
aI1
aI1
aI0
aI1
aI1
aI1
aI1
aI1
aI1
aI1
aI1
aI1
aI0
aI1
aI1
aI0
aI1
aI1
aI1
aI1
aI1
aI1
aI1
aI1
aI1
aI1
aI1
aI1
aI1
aI1
aI1
aI1
aI1
aI0
aI0
aI1
aI1
aI0
aI1
aI1
aI0
aI0
aI0
aI0
aI1
aI1
aI1
aI1
aI1
aI1
aI1
aI0
aI1
aI1
aI1
aI1
aI0
aI1
aI1
aI1
aI1
aI1
aI0
aI1
aI1
aI1
aI1
aI1
aI1
aI1
aI1
aI1
aI1
aI1
aI1
aI1
aI1
aI1
asg388
VPetrozavodsk SU 1: Filev, Ioffe
p417
sba(i__main__
Team
p418
(dp419
g386
(lp420
I0
aI0
aI1
aI0
aI1
aI0
aI1
aI0
aI1
aI1
aI1
aI0
aI0
aI1
aI1
aI1
aI0
aI1
aI1
aI1
aI1
aI1
aI0
aI1
aI1
aI1
aI1
aI0
aI1
aI0
aI1
aI1
aI1
aI1
aI1
aI1
aI1
aI0
aI1
aI1
aI1
aI1
aI1
aI1
aI1
aI1
aI1
aI0
aI1
aI0
aI1
aI0
aI1
aI1
aI0
aI0
aI0
aI1
aI1
aI1
aI1
aI1
aI1
aI1
aI1
aI0
aI1
aI1
aI1
aI1
aI1
aI1
aI1
aI1
aI1
aI1
aI1
aI1
aI1
aI1
aI1
aI1
aI1
aI1
aI1
aI1
aI1
aI1
aI1
aI1
aI1
aI1
asg388
VSPb NRU ITMO 2: Belonogov, Podtelkin, Zban
p421
sba(i__main__
Team
p422
(dp423
g386
(lp424
I0
aI0
aI1
aI0
aI1
aI0
aI0
aI0
aI0
aI1
aI1
aI0
aI0
aI1
aI1
aI1
aI0
aI1
aI1
aI1
aI1
aI1
aI0
aI1
aI1
aI1
aI0
aI1
aI1
aI0
aI1
aI1
aI1
aI1
aI1
aI1
aI1
aI1
aI1
aI1
aI1
aI1
aI1
aI0
aI1
aI1
aI1
aI1
aI1
aI0
aI1
aI0
aI1
aI0
aI0
aI0
aI0
aI0
aI1
aI1
aI1
aI1
aI1
aI1
aI1
aI0
aI1
aI1
aI0
aI1
aI0
aI1
aI1
aI1
aI1
aI0
aI0
aI1
aI1
aI1
aI1
aI1
aI1
aI0
aI1
aI1
aI1
aI1
aI0
aI1
aI1
aI1
asg388
VIMCS of Siberian FU Bizons: Demidenko, Magdenko, Snetkov
p425
sba(i__main__
Team
p426
(dp427
g386
(lp428
I0
aI0
aI1
aI1
aI1
aI0
aI1
aI0
aI1
aI1
aI1
aI0
aI0
aI1
aI1
aI1
aI0
aI1
aI1
aI1
aI1
aI1
aI1
aI1
aI1
aI1
aI1
aI1
aI1
aI0
aI1
aI1
aI1
aI1
aI1
aI1
aI1
aI0
aI1
aI1
aI1
aI1
aI1
aI0
aI1
aI0
aI1
aI0
aI1
aI0
aI0
aI0
aI1
aI1
aI0
aI0
aI1
aI0
aI1
aI1
aI1
aI1
aI1
aI1
aI1
aI0
aI0
aI1
aI0
aI1
aI0
aI1
aI1
aI1
aI1
aI1
aI0
aI1
aI1
aI1
aI1
aI0
aI0
aI0
aI1
aI0
aI1
aI0
aI0
aI1
aI1
aI1
asg388
VNizhny Novgorod SU 1: Epifanov, Krivonosov
p429
sba(i__main__
Team
p430
(dp431
g386
(lp432
I0
aI0
aI1
aI0
aI1
aI0
aI1
aI0
aI0
aI1
aI1
aI0
aI0
aI1
aI1
aI1
aI0
aI1
aI1
aI1
aI0
aI1
aI0
aI1
aI1
aI1
aI0
aI0
aI1
aI0
aI1
aI1
aI1
aI1
aI1
aI1
aI1
aI0
aI1
aI1
aI1
aI1
aI1
aI0
aI1
aI1
aI1
aI0
aI1
aI0
aI1
aI0
aI1
aI1
aI0
aI1
aI0
aI0
aI1
aI1
aI1
aI1
aI1
aI1
aI0
aI1
aI1
aI1
aI0
aI1
aI0
aI1
aI1
aI1
aI1
aI1
aI0
aI1
aI1
aI1
aI1
aI1
aI0
aI1
aI1
aI0
aI1
aI0
aI0
aI1
aI1
aI1
asg388
VMoscow SU tiramisu: Doykov, Shapovalov
p433
sba(i__main__
Team
p434
(dp435
g386
(lp436
I0
aI0
aI1
aI1
aI1
aI0
aI1
aI0
aI0
aI1
aI1
aI0
aI0
aI1
aI1
aI1
aI0
aI1
aI1
aI1
aI1
aI1
aI0
aI1
aI1
aI1
aI0
aI1
aI1
aI0
aI1
aI1
aI1
aI0
aI1
aI1
aI1
aI0
aI1
aI1
aI1
aI1
aI1
aI1
aI1
aI1
aI1
aI0
aI1
aI0
aI0
aI0
aI1
aI0
aI0
aI1
aI0
aI0
aI1
aI1
aI1
aI1
aI1
aI1
aI1
aI0
aI0
aI1
aI1
aI1
aI0
aI1
aI1
aI1
aI1
aI1
aI0
aI0
aI0
aI1
aI1
aI0
aI0
aI1
aI1
aI0
aI1
aI0
aI0
aI1
aI1
aI1
asg388
VKyiv NU Frogs: Shevchuk, Zdomskyi, Zinchenko
p437
sba(i__main__
Team
p438
(dp439
g386
(lp440
I0
aI0
aI1
aI0
aI0
aI0
aI1
aI0
aI0
aI1
aI0
aI0
aI0
aI1
aI1
aI1
aI0
aI1
aI1
aI1
aI1
aI1
aI0
aI1
aI1
aI1
aI0
aI1
aI1
aI0
aI1
aI1
aI1
aI0
aI1
aI1
aI1
aI0
aI1
aI1
aI1
aI1
aI1
aI0
aI1
aI1
aI1
aI0
aI1
aI0
aI1
aI0
aI1
aI0
aI0
aI0
aI0
aI0
aI0
aI1
aI1
aI1
aI1
aI1
aI1
aI0
aI1
aI1
aI0
aI1
aI0
aI1
aI1
aI1
aI1
aI1
aI0
aI1
aI0
aI1
aI1
aI1
aI1
aI0
aI1
aI1
aI1
aI1
aI0
aI1
aI1
aI1
asg388
VMoscow SU Team 2: Kraskevich, Kuplyakov, Lakhtanov
p441
sba(i__main__
Team
p442
(dp443
g386
(lp444
I0
aI0
aI1
aI0
aI1
aI0
aI1
aI0
aI0
aI1
aI1
aI0
aI0
aI1
aI1
aI1
aI0
aI1
aI1
aI1
aI1
aI0
aI0
aI1
aI1
aI1
aI0
aI0
aI1
aI0
aI1
aI1
aI1
aI0
aI1
aI1
aI1
aI0
aI1
aI1
aI1
aI1
aI1
aI0
aI1
aI1
aI1
aI0
aI1
aI0
aI1
aI0
aI1
aI0
aI0
aI1
aI0
aI0
aI0
aI1
aI1
aI1
aI1
aI1
aI1
aI0
aI1
aI1
aI0
aI0
aI0
aI1
aI1
aI1
aI1
aI1
aI0
aI1
aI1
aI1
aI1
aI1
aI0
aI0
aI1
aI1
aI1
aI1
aI0
aI1
aI1
aI1
asg388
VYerevan SU 1: Harutyunyan, Sahakyan
p445
sba(i__main__
Team
p446
(dp447
g386
(lp448
I0
aI0
aI1
aI0
aI1
aI0
aI1
aI0
aI0
aI1
aI1
aI0
aI0
aI1
aI1
aI1
aI0
aI1
aI1
aI1
aI1
aI0
aI0
aI1
aI1
aI1
aI0
aI0
aI1
aI0
aI1
aI1
aI1
aI0
aI1
aI1
aI1
aI0
aI1
aI1
aI1
aI1
aI1
aI1
aI1
aI1
aI1
aI0
aI1
aI0
aI1
aI0
aI1
aI1
aI0
aI0
aI0
aI1
aI0
aI1
aI1
aI1
aI1
aI1
aI1
aI0
aI1
aI1
aI0
aI1
aI0
aI1
aI1
aI1
aI1
aI1
aI0
aI1
aI1
aI1
aI1
aI0
aI0
aI0
aI1
aI0
aI1
aI0
aI0
aI1
aI1
aI1
asg388
VBelarusian SU DuguTaki: Ivanin, Nalivayko, Sataneuski
p449
sba(i__main__
Team
p450
(dp451
g386
(lp452
I0
aI0
aI1
aI0
aI1
aI0
aI1
aI0
aI1
aI1
aI0
aI0
aI0
aI1
aI1
aI1
aI0
aI0
aI1
aI1
aI0
aI0
aI0
aI1
aI1
aI1
aI0
aI1
aI0
aI0
aI1
aI1
aI1
aI0
aI1
aI1
aI1
aI0
aI1
aI1
aI1
aI1
aI1
aI0
aI1
aI1
aI1
aI0
aI1
aI0
aI1
aI0
aI1
aI1
aI0
aI0
aI0
aI0
aI0
aI1
aI1
aI1
aI1
aI1
aI1
aI0
aI1
aI1
aI0
aI1
aI0
aI1
aI1
aI1
aI1
aI1
aI0
aI1
aI1
aI1
aI1
aI0
aI0
aI0
aI1
aI1
aI1
aI0
aI0
aI1
aI1
aI1
asg388
VBelarusian SU Air Penguins: Poliyevits, Sheftelevich, Sokol
p453
sba(i__main__
Team
p454
(dp455
g386
(lp456
I0
aI0
aI1
aI0
aI1
aI0
aI1
aI0
aI0
aI1
aI1
aI0
aI0
aI1
aI1
aI1
aI0
aI0
aI1
aI1
aI0
aI1
aI0
aI1
aI1
aI1
aI0
aI1
aI1
aI0
aI1
aI1
aI1
aI0
aI1
aI1
aI1
aI0
aI0
aI1
aI1
aI1
aI1
aI0
aI1
aI0
aI1
aI0
aI1
aI0
aI0
aI0
aI1
aI0
aI0
aI0
aI0
aI0
aI1
aI1
aI1
aI1
aI1
aI1
aI0
aI0
aI0
aI1
aI1
aI0
aI0
aI1
aI1
aI1
aI1
aI1
aI0
aI1
aI1
aI1
aI1
aI1
aI0
aI0
aI1
aI0
aI1
aI0
aI1
aI1
aI1
aI1
asg388
VSPb SU Silver Marriage: Gulikov, Logunov, Riazanov
p457
sba(i__main__
Team
p458
(dp459
g386
(lp460
I0
aI0
aI1
aI0
aI1
aI0
aI1
aI0
aI0
aI1
aI1
aI0
aI0
aI1
aI1
aI1
aI0
aI1
aI1
aI1
aI0
aI1
aI0
aI1
aI1
aI1
aI0
aI0
aI1
aI0
aI1
aI1
aI1
aI0
aI1
aI1
aI1
aI0
aI1
aI1
aI1
aI1
aI1
aI0
aI1
aI0
aI1
aI0
aI1
aI0
aI0
aI0
aI1
aI1
aI0
aI0
aI0
aI0
aI1
aI1
aI1
aI1
aI1
aI1
aI0
aI0
aI0
aI0
aI0
aI0
aI0
aI1
aI1
aI1
aI1
aI1
aI0
aI1
aI0
aI1
aI1
aI0
aI0
aI0
aI0
aI0
aI1
aI0
aI0
aI1
aI1
aI1
asg388
VLviv NU Penguins: Bilyi, Herasymiv, Pryshchenko
p461
sba(i__main__
Team
p462
(dp463
g386
(lp464
I0
aI0
aI1
aI0
aI1
aI0
aI1
aI0
aI0
aI1
aI1
aI0
aI0
aI1
aI1
aI1
aI0
aI0
aI1
aI1
aI0
aI1
aI0
aI1
aI1
aI1
aI1
aI1
aI0
aI0
aI1
aI1
aI1
aI0
aI1
aI1
aI1
aI0
aI1
aI1
aI1
aI1
aI1
aI0
aI1
aI1
aI1
aI0
aI1
aI0
aI0
aI0
aI1
aI0
aI0
aI0
aI0
aI0
aI0
aI0
aI1
aI1
aI1
aI1
aI1
aI0
aI0
aI1
aI0
aI0
aI0
aI1
aI1
aI1
aI1
aI0
aI0
aI1
aI0
aI1
aI1
aI0
aI0
aI0
aI1
aI0
aI1
aI0
aI0
aI1
aI1
aI1
asg388
VKazakh-British TU Coach: Almakhan, Utkelbayev
p465
sba(i__main__
Team
p466
(dp467
g386
(lp468
I0
aI0
aI1
aI0
aI1
aI0
aI1
aI0
aI0
aI1
aI0
aI0
aI0
aI0
aI1
aI1
aI0
aI0
aI1
aI1
aI0
aI0
aI0
aI1
aI1
aI1
aI0
aI0
aI1
aI0
aI1
aI1
aI1
aI1
aI1
aI1
aI1
aI0
aI1
aI1
aI1
aI1
aI0
aI0
aI1
aI1
aI1
aI0
aI0
aI0
aI1
aI0
aI1
aI0
aI0
aI0
aI0
aI0
aI0
aI1
aI1
aI1
aI1
aI1
aI0
aI0
aI1
aI1
aI0
aI1
aI0
aI1
aI1
aI1
aI1
aI0
aI0
aI0
aI0
aI1
aI1
aI1
aI1
aI0
aI1
aI1
aI1
aI0
aI0
aI1
aI1
aI1
asg388
VYaroslavl SU 1: Kolobov, Krainov, Pikas
p469
sba(i__main__
Team
p470
(dp471
g386
(lp472
I0
aI0
aI1
aI0
aI1
aI0
aI0
aI0
aI0
aI1
aI1
aI0
aI0
aI1
aI1
aI1
aI0
aI0
aI1
aI1
aI0
aI1
aI0
aI1
aI1
aI1
aI0
aI1
aI0
aI0
aI1
aI1
aI0
aI0
aI1
aI1
aI1
aI0
aI1
aI1
aI1
aI1
aI1
aI0
aI1
aI1
aI1
aI0
aI1
aI0
aI0
aI0
aI1
aI0
aI0
aI0
aI0
aI0
aI1
aI0
aI1
aI1
aI1
aI1
aI1
aI0
aI0
aI1
aI0
aI0
aI0
aI1
aI1
aI1
aI1
aI0
aI0
aI1
aI1
aI1
aI1
aI0
aI1
aI0
aI1
aI0
aI1
aI0
aI0
aI1
aI1
aI1
asg388
VKazakh-British TU 1: Mussayev, Nurmash, Utemuratov
p473
sba(i__main__
Team
p474
(dp475
g386
(lp476
I0
aI0
aI1
aI0
aI1
aI0
aI0
aI0
aI0
aI1
aI1
aI0
aI0
aI1
aI1
aI1
aI0
aI0
aI1
aI1
aI0
aI1
aI0
aI1
aI1
aI1
aI0
aI0
aI1
aI0
aI1
aI1
aI1
aI0
aI1
aI1
aI1
aI0
aI1
aI1
aI1
aI1
aI1
aI0
aI1
aI1
aI1
aI0
aI1
aI0
aI0
aI0
aI1
aI0
aI0
aI0
aI0
aI0
aI0
aI0
aI1
aI1
aI1
aI1
aI1
aI0
aI0
aI1
aI0
aI0
aI0
aI1
aI1
aI1
aI1
aI0
aI0
aI1
aI1
aI1
aI1
aI0
aI0
aI0
aI1
aI1
aI1
aI0
aI0
aI1
aI1
aI1
asg388
VKazakh-British TU 2: Aitzhan, Amanov, Zhussupov
p477
sba(i__main__
Team
p478
(dp479
g386
(lp480
I0
aI0
aI1
aI1
aI1
aI0
aI1
aI1
aI1
aI1
aI1
aI0
aI0
aI1
aI1
aI1
aI0
aI1
aI1
aI0
aI1
aI1
aI0
aI1
aI1
aI1
aI0
aI0
aI1
aI0
aI1
aI1
aI1
aI0
aI1
aI1
aI1
aI0
aI1
aI1
aI1
aI1
aI1
aI0
aI1
aI1
aI1
aI0
aI1
aI0
aI0
aI0
aI1
aI0
aI0
aI0
aI0
aI0
aI0
aI1
aI1
aI1
aI1
aI1
aI1
aI0
aI0
aI1
aI0
aI1
aI0
aI1
aI0
aI0
aI0
aI0
aI0
aI0
aI0
aI0
aI0
aI0
aI0
aI0
aI1
aI0
aI1
aI0
aI0
aI1
aI1
aI1
asg388
VMoscow IPT Ababahalamaha: Babanin, Dmitriev, Ostanin
p481
sba(i__main__
Team
p482
(dp483
g386
(lp484
I0
aI0
aI1
aI0
aI1
aI0
aI1
aI0
aI0
aI1
aI0
aI0
aI0
aI1
aI1
aI1
aI0
aI0
aI1
aI1
aI0
aI0
aI0
aI1
aI1
aI1
aI0
aI0
aI0
aI0
aI1
aI1
aI1
aI0
aI1
aI1
aI1
aI0
aI0
aI1
aI1
aI1
aI1
aI0
aI1
aI0
aI1
aI0
aI1
aI0
aI0
aI0
aI1
aI0
aI0
aI0
aI1
aI0
aI0
aI1
aI1
aI1
aI1
aI0
aI0
aI0
aI0
aI1
aI1
aI1
aI0
aI1
aI1
aI1
aI0
aI0
aI0
aI0
aI0
aI1
aI1
aI0
aI0
aI0
aI0
aI0
aI1
aI0
aI0
aI1
aI1
aI1
asg388
VKyiv NU Flawless: Ignatenko, Furko, Mostovyi
p485
sba(i__main__
Team
p486
(dp487
g386
(lp488
I0
aI0
aI1
aI0
aI1
aI0
aI1
aI0
aI0
aI1
aI0
aI0
aI0
aI1
aI1
aI1
aI0
aI0
aI1
aI1
aI0
aI0
aI0
aI1
aI1
aI1
aI0
aI0
aI0
aI0
aI0
aI1
aI1
aI0
aI1
aI1
aI1
aI0
aI0
aI1
aI1
aI1
aI0
aI0
aI1
aI1
aI1
aI0
aI0
aI0
aI0
aI0
aI1
aI0
aI0
aI0
aI0
aI0
aI0
aI0
aI1
aI1
aI1
aI1
aI0
aI0
aI0
aI0
aI0
aI0
aI0
aI1
aI1
aI1
aI1
aI1
aI0
aI0
aI0
aI1
aI1
aI0
aI0
aI0
aI1
aI0
aI1
aI0
aI0
aI1
aI1
aI1
asg388
VUzhgorod NU Brainiacs: Melnyk, Oryshych, Rubanenko
p489
sba(i__main__
Team
p490
(dp491
g386
(lp492
I0
aI0
aI1
aI0
aI1
aI0
aI1
aI0
aI1
aI1
aI0
aI0
aI0
aI1
aI1
aI1
aI0
aI0
aI1
aI0
aI1
aI0
aI0
aI1
aI1
aI1
aI0
aI0
aI1
aI0
aI0
aI1
aI1
aI0
aI1
aI1
aI1
aI0
aI0
aI0
aI1
aI0
aI0
aI0
aI1
aI1
aI1
aI0
aI0
aI0
aI0
aI0
aI1
aI0
aI0
aI0
aI0
aI0
aI0
aI1
aI1
aI1
aI1
aI1
aI0
aI0
aI0
aI0
aI0
aI0
aI0
aI1
aI1
aI0
aI1
aI0
aI0
aI1
aI0
aI1
aI1
aI0
aI0
aI0
aI1
aI0
aI1
aI0
aI0
aI1
aI1
aI1
asg388
VSPb SU as is: Avdyukhin, Malinovsky
p493
sba(i__main__
Team
p494
(dp495
g386
(lp496
I0
aI0
aI0
aI0
aI0
aI0
aI0
aI0
aI0
aI1
aI1
aI0
aI0
aI1
aI1
aI1
aI0
aI0
aI1
aI0
aI1
aI1
aI0
aI1
aI1
aI1
aI0
aI0
aI1
aI0
aI1
aI1
aI1
aI0
aI1
aI1
aI1
aI0
aI1
aI1
aI1
aI1
aI1
aI0
aI1
aI0
aI1
aI1
aI1
aI0
aI0
aI0
aI0
aI0
aI0
aI0
aI0
aI0
aI0
aI0
aI0
aI1
aI1
aI1
aI1
aI0
aI0
aI1
aI0
aI0
aI0
aI1
aI1
aI0
aI0
aI1
aI0
aI1
aI0
aI1
aI1
aI1
aI0
aI0
aI0
aI0
aI0
aI0
aI0
aI0
aI0
aI0
asg388
VMoscow SU SG: Dubinin, Mokin
p497
sba(i__main__
Team
p498
(dp499
g386
(lp500
I0
aI0
aI1
aI0
aI1
aI0
aI1
aI0
aI0
aI1
aI0
aI0
aI0
aI0
aI0
aI0
aI0
aI0
aI1
aI1
aI0
aI0
aI0
aI1
aI1
aI1
aI0
aI0
aI0
aI0
aI0
aI1
aI0
aI0
aI1
aI1
aI1
aI0
aI1
aI1
aI1
aI1
aI0
aI0
aI1
aI0
aI1
aI0
aI0
aI0
aI1
aI0
aI1
aI0
aI0
aI0
aI0
aI0
aI0
aI0
aI1
aI1
aI1
aI1
aI1
aI0
aI1
aI0
aI0
aI0
aI0
aI1
aI1
aI1
aI1
aI0
aI0
aI1
aI0
aI1
aI1
aI1
aI0
aI0
aI1
aI0
aI1
aI0
aI0
aI1
aI0
aI1
asg388
VNazarbaev U 1: Dikhanov, Kassenov, Zhaxybay
p501
sba(i__main__
Team
p502
(dp503
g386
(lp504
I0
aI0
aI0
aI0
aI0
aI0
aI0
aI0
aI0
aI1
aI1
aI0
aI0
aI1
aI1
aI1
aI1
aI1
aI1
aI1
aI1
aI1
aI0
aI1
aI1
aI1
aI0
aI1
aI1
aI0
aI1
aI1
aI1
aI1
aI1
aI1
aI1
aI1
aI1
aI1
aI0
aI0
aI0
aI0
aI0
aI0
aI0
aI0
aI0
aI0
aI0
aI0
aI0
aI0
aI0
aI0
aI0
aI0
aI0
aI0
aI0
aI1
aI1
aI1
aI0
aI0
aI0
aI0
aI1
aI0
aI0
aI1
aI0
aI0
aI0
aI0
aI0
aI0
aI0
aI0
aI0
aI0
aI0
aI0
aI1
aI0
aI1
aI0
aI0
aI1
aI1
aI1
asg388
VOld School: Soboliev, Matov
p505
sba(i__main__
Team
p506
(dp507
g386
(lp508
I0
aI0
aI0
aI0
aI0
aI0
aI1
aI0
aI0
aI1
aI0
aI0
aI0
aI0
aI1
aI1
aI0
aI0
aI1
aI0
aI1
aI0
aI0
aI1
aI1
aI1
aI0
aI0
aI0
aI0
aI0
aI0
aI1
aI0
aI1
aI1
aI1
aI0
aI0
aI1
aI1
aI0
aI0
aI0
aI1
aI0
aI1
aI0
aI0
aI0
aI0
aI0
aI1
aI0
aI0
aI0
aI0
aI0
aI0
aI0
aI0
aI1
aI1
aI1
aI0
aI0
aI0
aI1
aI0
aI0
aI0
aI1
aI0
aI0
aI0
aI0
aI0
aI0
aI0
aI1
aI1
aI0
aI1
aI0
aI1
aI1
aI1
aI0
aI0
aI1
aI1
aI1
asg388
VOrel STU SU ESPC: Dobrikov, Gasilov, Strygin
p509
sba(i__main__
Team
p510
(dp511
g386
(lp512
I0
aI0
aI1
aI0
aI1
aI0
aI1
aI0
aI1
aI1
aI0
aI0
aI0
aI1
aI1
aI1
aI0
aI0
aI1
aI1
aI0
aI1
aI0
aI1
aI1
aI1
aI0
aI0
aI1
aI0
aI1
aI1
aI1
aI0
aI1
aI1
aI1
aI0
aI0
aI1
aI1
aI1
aI0
aI0
aI1
aI1
aI1
aI0
aI0
aI0
aI0
aI0
aI1
aI0
aI0
aI0
aI0
aI0
aI0
aI0
aI1
aI0
aI0
aI0
aI0
aI0
aI0
aI0
aI0
aI0
aI0
aI0
aI0
aI0
aI0
aI0
aI0
aI0
aI0
aI0
aI0
aI0
aI0
aI0
aI0
aI0
aI1
aI0
aI0
aI0
aI0
aI0
asg388
VBucharest U Unibuc1: Budau, Heidelbecher, Bud
p513
sba(i__main__
Team
p514
(dp515
g386
(lp516
I0
aI0
aI1
aI0
aI0
aI0
aI0
aI0
aI0
aI1
aI0
aI0
aI0
aI0
aI1
aI0
aI0
aI0
aI1
aI0
aI0
aI0
aI0
aI0
aI1
aI1
aI0
aI0
aI0
aI0
aI0
aI1
aI0
aI0
aI1
aI0
aI1
aI0
aI0
aI0
aI1
aI0
aI0
aI0
aI1
aI0
aI1
aI0
aI1
aI0
aI0
aI0
aI1
aI0
aI0
aI0
aI0
aI0
aI0
aI1
aI1
aI1
aI1
aI1
aI0
aI0
aI0
aI0
aI0
aI0
aI0
aI1
aI0
aI1
aI1
aI0
aI0
aI0
aI0
aI1
aI1
aI0
aI0
aI0
aI1
aI0
aI1
aI0
aI0
aI1
aI0
aI1
asg388
VAltai STU 1: Golovin, Nikitin
p517
sba(i__main__
Team
p518
(dp519
g386
(lp520
I0
aI0
aI1
aI0
aI0
aI0
aI0
aI0
aI0
aI1
aI0
aI0
aI0
aI0
aI0
aI0
aI0
aI0
aI1
aI0
aI0
aI0
aI0
aI1
aI1
aI1
aI0
aI0
aI0
aI0
aI0
aI1
aI0
aI0
aI1
aI1
aI1
aI0
aI0
aI1
aI1
aI0
aI0
aI0
aI1
aI0
aI0
aI0
aI0
aI0
aI0
aI0
aI1
aI0
aI0
aI0
aI0
aI0
aI0
aI0
aI0
aI1
aI1
aI1
aI0
aI0
aI0
aI0
aI0
aI0
aI0
aI1
aI1
aI0
aI1
aI0
aI0
aI0
aI0
aI1
aI1
aI1
aI1
aI0
aI0
aI0
aI1
aI0
aI0
aI1
aI0
aI1
asg388
VPetrozavodsk SU 2: Ermishin, Krasnov
p521
sba(i__main__
Team
p522
(dp523
g386
(lp524
I0
aI0
aI0
aI0
aI0
aI0
aI0
aI0
aI0
aI0
aI0
aI0
aI0
aI0
aI0
aI0
aI0
aI0
aI0
aI1
aI1
aI1
aI0
aI1
aI1
aI1
aI0
aI1
aI1
aI0
aI1
aI1
aI1
aI1
aI1
aI1
aI1
aI1
aI1
aI1
aI1
aI0
aI0
aI0
aI0
aI0
aI0
aI0
aI0
aI0
aI0
aI0
aI0
aI0
aI0
aI0
aI0
aI0
aI0
aI0
aI0
aI1
aI1
aI1
aI0
aI0
aI0
aI0
aI0
aI0
aI0
aI1
aI0
aI0
aI0
aI0
aI0
aI0
aI0
aI0
aI0
aI0
aI0
aI0
aI0
aI0
aI0
aI0
aI0
aI0
aI0
aI0
asg388
VSPb: Karpov, Kunyavskiy, Nigmatullin
p525
sba(i__main__
Team
p526
(dp527
g386
(lp528
I0
aI0
aI0
aI0
aI0
aI0
aI0
aI0
aI0
aI1
aI1
aI0
aI1
aI1
aI1
aI1
aI0
aI1
aI1
aI1
aI1
aI1
aI0
aI1
aI1
aI1
aI1
aI1
aI1
aI0
aI0
aI0
aI0
aI0
aI0
aI0
aI0
aI0
aI0
aI0
aI0
aI0
aI0
aI0
aI0
aI0
aI0
aI0
aI0
aI0
aI0
aI0
aI0
aI0
aI0
aI0
aI0
aI0
aI0
aI0
aI0
aI0
aI0
aI0
aI0
aI0
aI0
aI0
aI0
aI0
aI0
aI0
aI0
aI0
aI0
aI0
aI0
aI0
aI0
aI0
aI0
aI0
aI0
aI0
aI0
aI0
aI1
aI0
aI0
aI1
aI1
aI1
asg388
VSaratov SU: Agapov
p529
sba(i__main__
Team
p530
(dp531
g386
(lp532
I0
aI0
aI0
aI0
aI0
aI0
aI0
aI0
aI0
aI0
aI0
aI0
aI0
aI0
aI0
aI0
aI0
aI0
aI0
aI0
aI0
aI0
aI0
aI0
aI1
aI1
aI0
aI0
aI0
aI0
aI0
aI0
aI0
aI0
aI0
aI0
aI1
aI0
aI0
aI0
aI1
aI0
aI0
aI0
aI1
aI0
aI1
aI0
aI1
aI0
aI0
aI0
aI1
aI0
aI0
aI0
aI0
aI0
aI0
aI0
aI0
aI0
aI1
aI1
aI0
aI0
aI0
aI0
aI0
aI0
aI0
aI1
aI1
aI1
aI1
aI0
aI0
aI0
aI0
aI1
aI1
aI0
aI0
aI0
aI0
aI0
aI1
aI0
aI0
aI1
aI0
aI1
asg388
VKyiv NU Orange: Chernyi, Rebrik
p533
sba(i__main__
Team
p534
(dp535
g386
(lp536
I0
aI0
aI0
aI0
aI0
aI0
aI0
aI0
aI0
aI1
aI1
aI0
aI0
aI1
aI1
aI1
aI0
aI1
aI1
aI0
aI1
aI1
aI0
aI1
aI1
aI1
aI0
aI1
aI1
aI0
aI0
aI0
aI0
aI0
aI0
aI0
aI0
aI0
aI0
aI0
aI0
aI0
aI0
aI0
aI0
aI0
aI0
aI0
aI0
aI0
aI0
aI0
aI0
aI0
aI0
aI0
aI0
aI0
aI0
aI0
aI0
aI0
aI0
aI0
aI0
aI0
aI0
aI0
aI0
aI0
aI0
aI0
aI0
aI0
aI0
aI0
aI0
aI0
aI0
aI0
aI0
aI0
aI0
aI0
aI0
aI0
aI0
aI0
aI0
aI0
aI0
aI0
asg388
VMoscow: Gimadeev, Verkhoglyadov, Zhukov
p537
sba(i__main__
Team
p538
(dp539
g386
(lp540
I0
aI0
aI0
aI0
aI0
aI0
aI0
aI0
aI0
aI0
aI0
aI0
aI0
aI0
aI0
aI0
aI0
aI0
aI0
aI0
aI0
aI0
aI0
aI0
aI0
aI0
aI0
aI0
aI0
aI0
aI0
aI0
aI0
aI0
aI0
aI0
aI0
aI0
aI0
aI0
aI1
aI1
aI1
aI0
aI1
aI0
aI1
aI0
aI1
aI0
aI0
aI0
aI1
aI0
aI0
aI1
aI1
aI1
aI0
aI1
aI1
aI0
aI0
aI0
aI0
aI0
aI0
aI0
aI0
aI0
aI0
aI0
aI0
aI0
aI0
aI0
aI0
aI0
aI0
aI0
aI0
aI0
aI0
aI0
aI0
aI0
aI0
aI0
aI0
aI0
aI0
aI0
asg388
VSPb SU + SPb AU: Sergey Kopeliovich
p541
sba(i__main__
Team
p542
(dp543
g386
(lp544
I0
aI0
aI0
aI0
aI0
aI0
aI0
aI0
aI0
aI0
aI0
aI0
aI0
aI0
aI0
aI0
aI0
aI0
aI0
aI0
aI0
aI0
aI0
aI0
aI0
aI0
aI0
aI0
aI0
aI0
aI1
aI0
aI0
aI0
aI1
aI1
aI1
aI0
aI1
aI1
aI1
aI0
aI1
aI0
aI1
aI0
aI1
aI0
aI1
aI0
aI0
aI0
aI0
aI0
aI0
aI0
aI0
aI0
aI0
aI0
aI0
aI0
aI0
aI0
aI0
aI0
aI0
aI0
aI0
aI0
aI0
aI0
aI0
aI0
aI0
aI0
aI0
aI0
aI0
aI0
aI0
aI0
aI0
aI0
aI0
aI0
aI0
aI0
aI0
aI0
aI0
aI0
asg388
VBSU Smylic: Pavel Irzhavski
p545
sba(i__main__
Team
p546
(dp547
g386
(lp548
I0
aI0
aI0
aI0
aI0
aI0
aI0
aI0
aI0
aI1
aI1
aI1
aI1
aI1
aI1
aI1
aI1
aI1
aI1
aI0
aI0
aI0
aI0
aI0
aI0
aI0
aI0
aI0
aI0
aI0
aI0
aI0
aI0
aI0
aI0
aI0
aI0
aI0
aI0
aI0
aI0
aI0
aI0
aI0
aI0
aI0
aI0
aI0
aI0
aI0
aI0
aI0
aI0
aI0
aI0
aI0
aI0
aI0
aI0
aI0
aI0
aI0
aI0
aI0
aI0
aI0
aI0
aI0
aI0
aI0
aI0
aI0
aI0
aI0
aI0
aI0
aI0
aI0
aI0
aI0
aI0
aI0
aI0
aI0
aI0
aI0
aI0
aI0
aI0
aI0
aI0
aI0
asg388
VSPb SU 4: Egorov, Kunyavskiy, Suvorov
p549
sba(i__main__
Team
p550
(dp551
g386
(lp552
I0
aI0
aI0
aI0
aI0
aI0
aI0
aI0
aI0
aI0
aI0
aI0
aI0
aI0
aI0
aI0
aI0
aI0
aI0
aI0
aI0
aI0
aI0
aI0
aI1
aI1
aI0
aI0
aI0
aI0
aI0
aI0
aI0
aI0
aI0
aI0
aI1
aI0
aI0
aI0
aI1
aI0
aI0
aI0
aI0
aI0
aI0
aI0
aI0
aI0
aI0
aI0
aI0
aI0
aI0
aI0
aI0
aI0
aI0
aI0
aI0
aI0
aI0
aI1
aI0
aI0
aI0
aI0
aI0
aI0
aI0
aI1
aI0
aI0
aI0
aI0
aI0
aI0
aI0
aI0
aI1
aI0
aI1
aI0
aI0
aI0
aI1
aI0
aI0
aI0
aI0
aI1
asg388
VPetrozavodsk SU 3: Alkin, Ermolin, Kukushkin
p553
sba(i__main__
Team
p554
(dp555
g386
(lp556
I0
aI0
aI0
aI0
aI0
aI0
aI0
aI0
aI0
aI1
aI1
aI1
aI1
aI1
aI1
aI1
aI0
aI1
aI1
aI0
aI0
aI0
aI0
aI0
aI0
aI0
aI0
aI0
aI0
aI0
aI0
aI0
aI0
aI0
aI0
aI0
aI0
aI0
aI0
aI0
aI0
aI0
aI0
aI0
aI0
aI0
aI0
aI0
aI0
aI0
aI0
aI0
aI0
aI0
aI0
aI0
aI0
aI0
aI0
aI0
aI0
aI0
aI0
aI0
aI0
aI0
aI0
aI0
aI0
aI0
aI0
aI0
aI0
aI0
aI0
aI0
aI0
aI0
aI0
aI0
aI0
aI0
aI0
aI0
aI0
aI0
aI0
aI0
aI0
aI0
aI0
aI0
asg388
VPetr Team: Kulikov, Levin, Mitrichev
p557
sba(i__main__
Team
p558
(dp559
g386
(lp560
I0
aI0
aI0
aI0
aI0
aI0
aI0
aI0
aI0
aI1
aI1
aI0
aI0
aI1
aI1
aI1
aI0
aI1
aI1
aI0
aI0
aI0
aI0
aI0
aI0
aI0
aI0
aI0
aI0
aI0
aI0
aI0
aI0
aI0
aI0
aI0
aI0
aI0
aI0
aI0
aI0
aI0
aI0
aI0
aI0
aI0
aI0
aI0
aI0
aI0
aI0
aI0
aI0
aI0
aI0
aI0
aI0
aI0
aI0
aI0
aI0
aI0
aI0
aI0
aI0
aI0
aI0
aI0
aI0
aI0
aI0
aI0
aI0
aI0
aI0
aI0
aI0
aI0
aI0
aI0
aI0
aI0
aI0
aI0
aI0
aI0
aI0
aI0
aI0
aI0
aI0
aI0
asg388
VYandex.Belarus: Pisarchik, Ropan, Udovichenko
p561
sba(i__main__
Team
p562
(dp563
g386
(lp564
I0
aI0
aI1
aI0
aI0
aI0
aI0
aI0
aI0
aI0
aI0
aI0
aI0
aI0
aI0
aI0
aI0
aI0
aI0
aI0
aI0
aI0
aI0
aI1
aI0
aI0
aI0
aI0
aI0
aI0
aI0
aI0
aI0
aI0
aI1
aI0
aI1
aI0
aI0
aI0
aI0
aI0
aI0
aI0
aI0
aI0
aI0
aI0
aI0
aI0
aI0
aI0
aI0
aI0
aI0
aI0
aI0
aI0
aI0
aI0
aI0
aI1
aI0
aI0
aI0
aI0
aI0
aI0
aI0
aI0
aI0
aI1
aI0
aI0
aI0
aI0
aI0
aI0
aI0
aI0
aI0
aI0
aI1
aI0
aI0
aI0
aI0
aI0
aI0
aI0
aI0
aI0
asg388
VPetrozavodsk SU 4: Lomazina, Serkova
p565
sba(i__main__
Team
p566
(dp567
g386
(lp568
I0
aI0
aI0
aI0
aI0
aI0
aI0
aI0
aI0
aI0
aI0
aI0
aI0
aI0
aI0
aI0
aI0
aI0
aI0
aI0
aI0
aI0
aI0
aI0
aI0
aI0
aI0
aI0
aI0
aI0
aI0
aI0
aI0
aI0
aI0
aI0
aI0
aI0
aI0
aI0
aI1
aI0
aI0
aI0
aI1
aI0
aI1
aI0
aI1
aI0
aI0
aI0
aI0
aI0
aI0
aI0
aI0
aI0
aI0
aI0
aI0
aI0
aI0
aI0
aI0
aI0
aI0
aI0
aI0
aI0
aI0
aI0
aI0
aI0
aI0
aI0
aI0
aI0
aI0
aI0
aI0
aI0
aI0
aI0
aI0
aI0
aI0
aI0
aI0
aI0
aI0
aI0
asg388
VSPb SU Gassa: Ivan Kazmenko
p569
sba(i__main__
Team
p570
(dp571
g386
(lp572
I0
aI0
aI0
aI0
aI0
aI0
aI0
aI0
aI0
aI0
aI0
aI0
aI0
aI0
aI0
aI0
aI0
aI0
aI0
aI0
aI0
aI0
aI0
aI0
aI0
aI0
aI0
aI0
aI0
aI0
aI0
aI0
aI0
aI0
aI0
aI0
aI0
aI0
aI0
aI0
aI0
aI0
aI0
aI0
aI0
aI0
aI0
aI0
aI0
aI0
aI0
aI0
aI0
aI0
aI0
aI0
aI0
aI0
aI0
aI0
aI0
aI0
aI0
aI0
aI0
aI0
aI0
aI0
aI0
aI0
aI0
aI0
aI0
aI0
aI0
aI0
aI0
aI0
aI0
aI0
aI0
aI0
aI0
aI0
aI0
aI1
aI0
aI0
aI0
aI0
aI0
aI0
asg388
VSPb NRU ITMO enot: Smykalov
p573
sba(i__main__
Team
p574
(dp575
g386
(lp576
I0
aI0
aI0
aI0
aI0
aI0
aI0
aI0
aI0
aI0
aI0
aI0
aI0
aI0
aI0
aI0
aI0
aI0
aI0
aI0
aI0
aI0
aI0
aI0
aI0
aI0
aI0
aI0
aI0
aI0
aI0
aI0
aI0
aI0
aI0
aI0
aI0
aI0
aI0
aI0
aI0
aI0
aI0
aI0
aI0
aI0
aI0
aI0
aI0
aI0
aI0
aI0
aI0
aI0
aI0
aI0
aI0
aI0
aI0
aI0
aI0
aI0
aI0
aI0
aI0
aI0
aI0
aI0
aI0
aI0
aI0
aI0
aI0
aI0
aI0
aI0
aI0
aI0
aI0
aI0
aI0
aI0
aI0
aI0
aI0
aI0
aI0
aI0
aI0
aI0
aI0
aI1
asg388
VKyiv NU Forritary: Kalinichenko, Kolyanko, Kozhuhovsky
p577
sba(i__main__
Team
p578
(dp579
g386
(lp580
I0
aI0
aI0
aI0
aI0
aI0
aI0
aI0
aI0
aI0
aI0
aI0
aI0
aI0
aI0
aI0
aI0
aI0
aI0
aI0
aI0
aI0
aI0
aI0
aI0
aI0
aI0
aI0
aI0
aI0
aI0
aI0
aI0
aI0
aI0
aI0
aI0
aI0
aI0
aI0
aI0
aI0
aI0
aI0
aI0
aI0
aI0
aI0
aI0
aI0
aI0
aI0
aI0
aI0
aI0
aI0
aI0
aI0
aI0
aI0
aI0
aI0
aI0
aI0
aI0
aI0
aI0
aI0
aI0
aI0
aI0
aI0
aI0
aI0
aI0
aI0
aI0
aI0
aI0
aI0
aI0
aI0
aI0
aI0
aI0
aI0
aI0
aI0
aI0
aI0
aI0
aI0
asg388
VSCH_Petrozavodsk SCH 1:
p581
sba(i__main__
Team
p582
(dp583
g386
(lp584
I0
aI0
aI0
aI0
aI0
aI0
aI0
aI0
aI0
aI0
aI0
aI0
aI0
aI0
aI0
aI0
aI0
aI0
aI0
aI0
aI0
aI0
aI0
aI0
aI0
aI0
aI0
aI0
aI0
aI0
aI0
aI0
aI0
aI0
aI0
aI0
aI0
aI0
aI0
aI0
aI0
aI0
aI0
aI0
aI0
aI0
aI0
aI0
aI0
aI0
aI0
aI0
aI0
aI0
aI0
aI0
aI0
aI0
aI0
aI0
aI0
aI0
aI0
aI0
aI0
aI0
aI0
aI0
aI0
aI0
aI0
aI0
aI0
aI0
aI0
aI0
aI0
aI0
aI0
aI0
aI0
aI0
aI0
aI0
aI0
aI0
aI0
aI0
aI0
aI0
aI0
aI0
asg388
VBucharest U Unibuc2: Mihai, Calancea, Cazacu
p585
sba.